	?NewSession@tensorflow@@YAPEAVSession@1@AEBUSessionOptions@1@@Z
	??0SessionOptions@tensorflow@@QEAA@XZ
	??0Subtract@ops@tensorflow@@QEAA@AEBVScope@2@VInput@2@1@Z
	??0Squeeze@ops@tensorflow@@QEAA@AEBVScope@2@VInput@2@@Z
	??0DecodeGif@ops@tensorflow@@QEAA@AEBVScope@2@VInput@2@@Z
	??0ResizeBilinear@ops@tensorflow@@QEAA@AEBVScope@2@VInput@2@1@Z
	?Const@ops@tensorflow@@YA?AVOutput@2@AEBVScope@2@AEBUInitializer@Input@2@@Z
	??0DecodePng@ops@tensorflow@@QEAA@AEBVScope@2@VInput@2@AEBUAttrs@012@@Z
	??0Placeholder@ops@tensorflow@@QEAA@AEBVScope@2@W4DataType@2@@Z
	??0Placeholder@ops@tensorflow@@QEAA@AEBVScope@2@W4DataType@2@AEBUAttrs@012@@Z
	??0DecodeJpeg@ops@tensorflow@@QEAA@AEBVScope@2@VInput@2@AEBUAttrs@012@@Z
	??0DecodeBmp@ops@tensorflow@@QEAA@AEBVScope@2@VInput@2@@Z
	??0Div@ops@tensorflow@@QEAA@AEBVScope@2@VInput@2@1@Z
	??0Operation@tensorflow@@QEAA@PEAVNode@1@@Z
	?WithOpNameImpl@Scope@tensorflow@@AEBA?AV12@AEBV?$basic_string@DU?$char_traits@D@std@@V?$allocator@D@2@@std@@@Z
	?ToGraphDef@Scope@tensorflow@@QEBA?AVStatus@2@PEAVGraphDef@2@@Z
	?NewRootScope@Scope@tensorflow@@SA?AV12@XZ
	??1Scope@tensorflow@@QEAA@XZ
	??0Initializer@Input@tensorflow@@QEAA@AEBV?$initializer_list@UInitializer@Input@tensorflow@@@std@@@Z
	??0TopK@ops@tensorflow@@QEAA@AEBVScope@2@VInput@2@1@Z
	??0ExpandDims@ops@tensorflow@@QEAA@AEBVScope@2@VInput@2@1@Z
	??0Cast@ops@tensorflow@@QEAA@AEBVScope@2@VInput@2@W4DataType@2@@Z
